; ModuleID = '22/627.c'
source_filename = "22/627.c"
target datalayout = "e-m:e-p270:32:32-p271:32:32-p272:64:64-i64:64-f80:128-n8:16:32:64-S128"
target triple = "x86_64-pc-linux-gnu"

@.str = private unnamed_addr constant [3 x i8] c"%d\00", align 1
@.str.1 = private unnamed_addr constant [4 x i8] c",%d\00", align 1
@.str.2 = private unnamed_addr constant [3 x i8] c"No\00", align 1

; Function Attrs: noinline nounwind uwtable
define dso_local void @main() #0 {
  %1 = alloca [301 x i32], align 16
  %2 = alloca i32, align 4
  %3 = alloca i32, align 4
  %4 = alloca i32, align 4
  %5 = alloca i32, align 4
  %6 = alloca i32, align 4
  %7 = alloca i32, align 4
  %8 = alloca i32, align 4
  %9 = getelementptr inbounds [301 x i32], [301 x i32]* %1, i64 0, i64 0
  %10 = call i32 (i8*, ...) @__isoc99_scanf(i8* getelementptr inbounds ([3 x i8], [3 x i8]* @.str, i64 0, i64 0), i32* %9)
  store i32 1, i32* %6, align 4
  br label %11

11:                                               ; preds = %17, %0
  %12 = load i32, i32* %6, align 4
  %13 = sext i32 %12 to i64
  %14 = getelementptr inbounds [301 x i32], [301 x i32]* %1, i64 0, i64 %13
  %15 = call i32 (i8*, ...) @__isoc99_scanf(i8* getelementptr inbounds ([4 x i8], [4 x i8]* @.str.1, i64 0, i64 0), i32* %14)
  %16 = icmp ne i32 %15, 0
  br i1 %16, label %17, label %20

17:                                               ; preds = %11
  %18 = load i32, i32* %6, align 4
  %19 = add nsw i32 %18, 1
  store i32 %19, i32* %6, align 4
  br label %11

20:                                               ; preds = %11
  %21 = load i32, i32* %6, align 4
  store i32 %21, i32* %2, align 4
  %22 = getelementptr inbounds [301 x i32], [301 x i32]* %1, i64 0, i64 0
  %23 = load i32, i32* %22, align 16
  store i32 %23, i32* %7, align 4
  store i32 1, i32* %6, align 4
  br label %24

24:                                               ; preds = %41, %20
  %25 = load i32, i32* %6, align 4
  %26 = load i32, i32* %2, align 4
  %27 = icmp slt i32 %25, %26
  br i1 %27, label %28, label %44

28:                                               ; preds = %24
  %29 = load i32, i32* %6, align 4
  %30 = sext i32 %29 to i64
  %31 = getelementptr inbounds [301 x i32], [301 x i32]* %1, i64 0, i64 %30
  %32 = load i32, i32* %31, align 4
  %33 = load i32, i32* %7, align 4
  %34 = icmp sge i32 %32, %33
  br i1 %34, label %35, label %40

35:                                               ; preds = %28
  %36 = load i32, i32* %6, align 4
  %37 = sext i32 %36 to i64
  %38 = getelementptr inbounds [301 x i32], [301 x i32]* %1, i64 0, i64 %37
  %39 = load i32, i32* %38, align 4
  store i32 %39, i32* %7, align 4
  br label %40

40:                                               ; preds = %35, %28
  br label %41

41:                                               ; preds = %40
  %42 = load i32, i32* %6, align 4
  %43 = add nsw i32 %42, 1
  store i32 %43, i32* %6, align 4
  br label %24

44:                                               ; preds = %24
  store i32 0, i32* %4, align 4
  store i32 0, i32* %6, align 4
  br label %45

45:                                               ; preds = %58, %44
  %46 = load i32, i32* %6, align 4
  %47 = load i32, i32* %2, align 4
  %48 = icmp slt i32 %46, %47
  br i1 %48, label %49, label %61

49:                                               ; preds = %45
  %50 = load i32, i32* %6, align 4
  %51 = sext i32 %50 to i64
  %52 = getelementptr inbounds [301 x i32], [301 x i32]* %1, i64 0, i64 %51
  %53 = load i32, i32* %52, align 4
  %54 = load i32, i32* %7, align 4
  %55 = icmp ne i32 %53, %54
  br i1 %55, label %56, label %57

56:                                               ; preds = %49
  store i32 1, i32* %4, align 4
  br label %61

57:                                               ; preds = %49
  br label %58

58:                                               ; preds = %57
  %59 = load i32, i32* %6, align 4
  %60 = add nsw i32 %59, 1
  store i32 %60, i32* %6, align 4
  br label %45

61:                                               ; preds = %56, %45
  %62 = load i32, i32* %4, align 4
  %63 = icmp eq i32 %62, 0
  br i1 %63, label %64, label %66

64:                                               ; preds = %61
  %65 = call i32 (i8*, ...) @printf(i8* getelementptr inbounds ([3 x i8], [3 x i8]* @.str.2, i64 0, i64 0))
  br label %101

66:                                               ; preds = %61
  %67 = load i32, i32* %6, align 4
  %68 = sext i32 %67 to i64
  %69 = getelementptr inbounds [301 x i32], [301 x i32]* %1, i64 0, i64 %68
  %70 = load i32, i32* %69, align 4
  store i32 %70, i32* %8, align 4
  store i32 0, i32* %5, align 4
  br label %71

71:                                               ; preds = %95, %66
  %72 = load i32, i32* %5, align 4
  %73 = load i32, i32* %2, align 4
  %74 = icmp slt i32 %72, %73
  br i1 %74, label %75, label %98

75:                                               ; preds = %71
  %76 = load i32, i32* %5, align 4
  %77 = sext i32 %76 to i64
  %78 = getelementptr inbounds [301 x i32], [301 x i32]* %1, i64 0, i64 %77
  %79 = load i32, i32* %78, align 4
  %80 = load i32, i32* %8, align 4
  %81 = icmp sge i32 %79, %80
  br i1 %81, label %82, label %94

82:                                               ; preds = %75
  %83 = load i32, i32* %5, align 4
  %84 = sext i32 %83 to i64
  %85 = getelementptr inbounds [301 x i32], [301 x i32]* %1, i64 0, i64 %84
  %86 = load i32, i32* %85, align 4
  %87 = load i32, i32* %7, align 4
  %88 = icmp ne i32 %86, %87
  br i1 %88, label %89, label %94

89:                                               ; preds = %82
  %90 = load i32, i32* %5, align 4
  %91 = sext i32 %90 to i64
  %92 = getelementptr inbounds [301 x i32], [301 x i32]* %1, i64 0, i64 %91
  %93 = load i32, i32* %92, align 4
  store i32 %93, i32* %8, align 4
  br label %94

94:                                               ; preds = %89, %82, %75
  br label %95

95:                                               ; preds = %94
  %96 = load i32, i32* %5, align 4
  %97 = add nsw i32 %96, 1
  store i32 %97, i32* %5, align 4
  br label %71

98:                                               ; preds = %71
  %99 = load i32, i32* %8, align 4
  %100 = call i32 (i8*, ...) @printf(i8* getelementptr inbounds ([3 x i8], [3 x i8]* @.str, i64 0, i64 0), i32 %99)
  br label %101

101:                                              ; preds = %98, %64
  ret void
}

declare dso_local i32 @__isoc99_scanf(i8*, ...) #1

declare dso_local i32 @printf(i8*, ...) #1


!llvm.module.flags = !{!0}
!llvm.ident = !{!1}

!0 = !{i32 1, !"wchar_size", i32 4}
!1 = !{!"clang version 10.0.0-4ubuntu1 "}
